; Function Attrs: mustprogress nounwind uwtable
define noundef i32 @_ZN7glslang12TScanContext16precisionKeywordEv(ptr noundef nonnull align 8 dereferenceable(76) %0) local_unnamed_addr #0 align 2 {
  %2 = getelementptr inbounds nuw i8, ptr %0, i64 8
  %3 = load ptr, ptr %2, align 8
  %4 = getelementptr inbounds nuw i8, ptr %3, i64 12
  %5 = load i32, ptr %4, align 4
  %6 = icmp eq i32 %5, 8
  br i1 %6, label %11, label %7

7:                                                ; preds = %1
  %8 = getelementptr inbounds nuw i8, ptr %3, i64 24
  %9 = load i32, ptr %8, align 8
  %10 = icmp sgt i32 %9, 129
  br i1 %10, label %11, label %14

11:                                               ; preds = %7, %1
  %12 = getelementptr inbounds nuw i8, ptr %0, i64 72
  %13 = load i32, ptr %12, align 8
  br label %27

14:                                               ; preds = %7
  %15 = getelementptr inbounds nuw i8, ptr %3, i64 8
  %16 = load i8, ptr %15, align 8
  %17 = trunc i8 %16 to i1
  br i1 %17, label %18, label %25

18:                                               ; preds = %14
  %19 = getelementptr inbounds nuw i8, ptr %0, i64 24
  %20 = getelementptr inbounds nuw i8, ptr %0, i64 64
  %21 = load ptr, ptr %20, align 8
  %22 = load ptr, ptr %3, align 8
  %23 = getelementptr inbounds nuw i8, ptr %22, i64 352
  %24 = load ptr, ptr %23, align 8
  tail call void (ptr, ptr, ptr, ptr, ptr, ...) %24(ptr noundef nonnull align 8 dereferenceable(1280) %3, ptr noundef nonnull align 8 dereferenceable(24) %19, ptr noundef nonnull @.str.505, ptr noundef %21, ptr noundef nonnull @.str.446) #15
  br label %25

25:                                               ; preds = %18, %14
  %26 = tail call noundef i32 @_ZN7glslang12TScanContext16identifierOrTypeEv(ptr noundef nonnull align 8 dereferenceable(76) %0)
  br label %27

27:                                               ; preds = %25, %11
  %.0 = phi i32 [ %13, %11 ], [ %26, %25 ]
  ret i32 %.0
}